target datalayout = "e-m:e-p270:32:32-p271:32:32-p272:64:64-i64:64-i128:128-f80:128-n8:16:32:64-S128"
target triple = "x86_64-pc-linux-gnu"

%struct.AVCodecContext = type { ptr, i32, i32, ptr, i32, i32, ptr, ptr, ptr, i64, i32, i32, ptr, i32, %struct.AVRational, %struct.AVRational, %struct.AVRational, i32, i32, i32, i32, i32, %struct.AVRational, i32, i32, i32, i32, i32, i32, i32, i32, i32, i32, i32, ptr, ptr, i32, float, float, float, float, float, float, float, float, float, i32, i32, i32, i32, i32, i32, i32, i32, i32, i32, i32, i32, ptr, ptr, ptr, i32, i32, i32, i32, i32, i32, i32, i32, i32, i32, %struct.AVChannelLayout, i32, i32, i32, i32, i32, i32, i32, i32, ptr, i32, i32, i32, float, float, i32, i32, i32, i32, i32, ptr, i64, i64, float, float, i32, i32, ptr, ptr, i32, i32, i32, i32, i32, ptr, ptr, ptr, ptr, i32, i32, [8 x i64], i32, i32, i32, i32, i32, i32, i32, ptr, ptr, i32, i32, i32, i32, i32, i32, i32, i32, i32, i32, ptr, ptr, i32, i32, ptr, ptr, ptr, ptr, i32, i32, i64, i32, i32, i64, ptr, i64, ptr, i32, ptr, i32 }
%struct.AVRational = type { i32, i32 }
%struct.AVChannelLayout = type { i32, i32, %union.anon.0, ptr }
%union.anon.0 = type { i64 }
%struct.OSQContext = type { %struct.GetBitContext, [2 x %struct.OSQChannel], ptr, i64, i64, i32, i32, i32, i64, [2 x ptr], ptr, i32 }
%struct.GetBitContext = type { ptr, ptr, i32, i32, i32 }
%struct.OSQChannel = type { i32, i32, i32, i32, [3 x i32], i32, i32, double, i32 }

; Function Attrs: cold nounwind optsize uwtable
define internal i32 @osq_close(ptr noundef %0) #0 {
  %2 = alloca ptr, align 8
  %3 = alloca ptr, align 8
  %4 = alloca i32, align 4
  store ptr %0, ptr %2, align 8, !tbaa !4
  call void @llvm.lifetime.start.p0(i64 8, ptr %3) #10
  %5 = load ptr, ptr %2, align 8, !tbaa !4
  %6 = getelementptr inbounds nuw %struct.AVCodecContext, ptr %5, i32 0, i32 6
  %7 = load ptr, ptr %6, align 8, !tbaa !9
  store ptr %7, ptr %3, align 8, !tbaa !29
  %8 = load ptr, ptr %3, align 8, !tbaa !29
  %9 = getelementptr inbounds nuw %struct.OSQContext, ptr %8, i32 0, i32 2
  call void @av_freep(ptr noundef %9)
  %10 = load ptr, ptr %3, align 8, !tbaa !29
  %11 = getelementptr inbounds nuw %struct.OSQContext, ptr %10, i32 0, i32 4
  store i64 0, ptr %11, align 8, !tbaa !62
  call void @llvm.lifetime.start.p0(i64 4, ptr %4) #10
  store i32 0, ptr %4, align 4, !tbaa !47
  br label %12

12:                                               ; preds = %23, %1
  %13 = load i32, ptr %4, align 4, !tbaa !47
  %14 = sext i32 %13 to i64
  %15 = icmp ult i64 %14, 2
  br i1 %15, label %17, label %16

16:                                               ; preds = %12
  call void @llvm.lifetime.end.p0(i64 4, ptr %4) #10
  br label %26

17:                                               ; preds = %12
  %18 = load ptr, ptr %3, align 8, !tbaa !29
  %19 = getelementptr inbounds nuw %struct.OSQContext, ptr %18, i32 0, i32 9
  %20 = load i32, ptr %4, align 4, !tbaa !47
  %21 = sext i32 %20 to i64
  %22 = getelementptr inbounds [2 x ptr], ptr %19, i64 0, i64 %21
  call void @av_freep(ptr noundef %22)
  br label %23

23:                                               ; preds = %17
  %24 = load i32, ptr %4, align 4, !tbaa !47
  %25 = add nsw i32 %24, 1
  store i32 %25, ptr %4, align 4, !tbaa !47
  br label %12, !llvm.loop !73

26:                                               ; preds = %16
  call void @llvm.lifetime.end.p0(i64 8, ptr %3) #10
  ret i32 0
}