; Function Attrs: cold nounwind optsize uwtable
define internal noundef i32 @osq_close(ptr noundef readonly captures(none) %0) #0 {
.critedge:
  %1 = getelementptr inbounds nuw i8, ptr %0, i64 32
  %2 = load ptr, ptr %1, align 8, !tbaa !4
  %3 = getelementptr inbounds nuw i8, ptr %2, i64 144
  tail call void @av_freep(ptr noundef nonnull %3) #8
  %4 = getelementptr inbounds nuw i8, ptr %2, i64 160
  store i64 0, ptr %4, align 8, !tbaa !54
  %5 = getelementptr inbounds nuw i8, ptr %2, i64 192
  tail call void @av_freep(ptr noundef nonnull %5) #8
  %6 = getelementptr inbounds nuw i8, ptr %2, i64 200
  tail call void @av_freep(ptr noundef nonnull %6) #8
  ret i32 0
}